target datalayout = "e-m:e-p270:32:32-p271:32:32-p272:64:64-i64:64-i128:128-f80:128-n8:16:32:64-S128"
target triple = "x86_64-pc-linux-gnu"

; Function Attrs: nounwind uwtable
define i32 @Sbd_CutMergeSimple(ptr noundef %0, ptr noundef %1, ptr noundef %2, ptr noundef %3) #0 {
  %5 = alloca ptr, align 8
  %6 = alloca ptr, align 8
  %7 = alloca ptr, align 8
  %8 = alloca ptr, align 8
  %9 = alloca ptr, align 8
  %10 = alloca ptr, align 8
  %11 = alloca ptr, align 8
  %12 = alloca ptr, align 8
  %13 = alloca ptr, align 8
  store ptr %0, ptr %5, align 8, !tbaa !73
  store ptr %1, ptr %6, align 8, !tbaa !99
  store ptr %2, ptr %7, align 8, !tbaa !99
  store ptr %3, ptr %8, align 8, !tbaa !99
  call void @llvm.lifetime.start.p0(i64 8, ptr %9) #13
  %14 = load ptr, ptr %8, align 8, !tbaa !99
  %15 = getelementptr inbounds i32, ptr %14, i64 1
  store ptr %15, ptr %9, align 8, !tbaa !99
  call void @llvm.lifetime.start.p0(i64 8, ptr %10) #13
  %16 = load ptr, ptr %6, align 8, !tbaa !99
  %17 = getelementptr inbounds i32, ptr %16, i64 1
  store ptr %17, ptr %10, align 8, !tbaa !99
  call void @llvm.lifetime.start.p0(i64 8, ptr %11) #13
  %18 = load ptr, ptr %7, align 8, !tbaa !99
  %19 = getelementptr inbounds i32, ptr %18, i64 1
  store ptr %19, ptr %11, align 8, !tbaa !99
  call void @llvm.lifetime.start.p0(i64 8, ptr %12) #13
  %20 = load ptr, ptr %6, align 8, !tbaa !99
  %21 = getelementptr inbounds i32, ptr %20, i64 1
  %22 = load ptr, ptr %6, align 8, !tbaa !99
  %23 = getelementptr inbounds i32, ptr %22, i64 0
  %24 = load i32, ptr %23, align 4, !tbaa !29
  %25 = sext i32 %24 to i64
  %26 = getelementptr inbounds i32, ptr %21, i64 %25
  store ptr %26, ptr %12, align 8, !tbaa !99
  call void @llvm.lifetime.start.p0(i64 8, ptr %13) #13
  %27 = load ptr, ptr %7, align 8, !tbaa !99
  %28 = getelementptr inbounds i32, ptr %27, i64 1
  %29 = load ptr, ptr %7, align 8, !tbaa !99
  %30 = getelementptr inbounds i32, ptr %29, i64 0
  %31 = load i32, ptr %30, align 4, !tbaa !29
  %32 = sext i32 %31 to i64
  %33 = getelementptr inbounds i32, ptr %28, i64 %32
  store ptr %33, ptr %13, align 8, !tbaa !99
  br label %34

34:                                               ; preds = %77, %4
  %35 = load ptr, ptr %10, align 8, !tbaa !99
  %36 = load ptr, ptr %12, align 8, !tbaa !99
  %37 = icmp ult ptr %35, %36
  br i1 %37, label %38, label %42

38:                                               ; preds = %34
  %39 = load ptr, ptr %11, align 8, !tbaa !99
  %40 = load ptr, ptr %13, align 8, !tbaa !99
  %41 = icmp ult ptr %39, %40
  br label %42

42:                                               ; preds = %38, %34
  %43 = phi i1 [ false, %34 ], [ %41, %38 ]
  br i1 %43, label %44, label %78

44:                                               ; preds = %42
  %45 = load ptr, ptr %10, align 8, !tbaa !99
  %46 = load i32, ptr %45, align 4, !tbaa !29
  %47 = load ptr, ptr %11, align 8, !tbaa !99
  %48 = load i32, ptr %47, align 4, !tbaa !29
  %49 = icmp eq i32 %46, %48
  br i1 %49, label %50, label %58

50:                                               ; preds = %44
  %51 = load ptr, ptr %10, align 8, !tbaa !99
  %52 = getelementptr inbounds nuw i32, ptr %51, i32 1
  store ptr %52, ptr %10, align 8, !tbaa !99
  %53 = load i32, ptr %51, align 4, !tbaa !29
  %54 = load ptr, ptr %9, align 8, !tbaa !99
  %55 = getelementptr inbounds nuw i32, ptr %54, i32 1
  store ptr %55, ptr %9, align 8, !tbaa !99
  store i32 %53, ptr %54, align 4, !tbaa !29
  %56 = load ptr, ptr %11, align 8, !tbaa !99
  %57 = getelementptr inbounds nuw i32, ptr %56, i32 1
  store ptr %57, ptr %11, align 8, !tbaa !99
  br label %77

58:                                               ; preds = %44
  %59 = load ptr, ptr %10, align 8, !tbaa !99
  %60 = load i32, ptr %59, align 4, !tbaa !29
  %61 = load ptr, ptr %11, align 8, !tbaa !99
  %62 = load i32, ptr %61, align 4, !tbaa !29
  %63 = icmp slt i32 %60, %62
  br i1 %63, label %64, label %70

64:                                               ; preds = %58
  %65 = load ptr, ptr %10, align 8, !tbaa !99
  %66 = getelementptr inbounds nuw i32, ptr %65, i32 1
  store ptr %66, ptr %10, align 8, !tbaa !99
  %67 = load i32, ptr %65, align 4, !tbaa !29
  %68 = load ptr, ptr %9, align 8, !tbaa !99
  %69 = getelementptr inbounds nuw i32, ptr %68, i32 1
  store ptr %69, ptr %9, align 8, !tbaa !99
  store i32 %67, ptr %68, align 4, !tbaa !29
  br label %76

70:                                               ; preds = %58
  %71 = load ptr, ptr %11, align 8, !tbaa !99
  %72 = getelementptr inbounds nuw i32, ptr %71, i32 1
  store ptr %72, ptr %11, align 8, !tbaa !99
  %73 = load i32, ptr %71, align 4, !tbaa !29
  %74 = load ptr, ptr %9, align 8, !tbaa !99
  %75 = getelementptr inbounds nuw i32, ptr %74, i32 1
  store ptr %75, ptr %9, align 8, !tbaa !99
  store i32 %73, ptr %74, align 4, !tbaa !29
  br label %76

76:                                               ; preds = %70, %64
  br label %77

77:                                               ; preds = %76, %50
  br label %34, !llvm.loop !264

78:                                               ; preds = %42
  br label %79

79:                                               ; preds = %83, %78
  %80 = load ptr, ptr %10, align 8, !tbaa !99
  %81 = load ptr, ptr %12, align 8, !tbaa !99
  %82 = icmp ult ptr %80, %81
  br i1 %82, label %83, label %89

83:                                               ; preds = %79
  %84 = load ptr, ptr %10, align 8, !tbaa !99
  %85 = getelementptr inbounds nuw i32, ptr %84, i32 1
  store ptr %85, ptr %10, align 8, !tbaa !99
  %86 = load i32, ptr %84, align 4, !tbaa !29
  %87 = load ptr, ptr %9, align 8, !tbaa !99
  %88 = getelementptr inbounds nuw i32, ptr %87, i32 1
  store ptr %88, ptr %9, align 8, !tbaa !99
  store i32 %86, ptr %87, align 4, !tbaa !29
  br label %79, !llvm.loop !265

89:                                               ; preds = %79
  br label %90

90:                                               ; preds = %94, %89
  %91 = load ptr, ptr %11, align 8, !tbaa !99
  %92 = load ptr, ptr %13, align 8, !tbaa !99
  %93 = icmp ult ptr %91, %92
  br i1 %93, label %94, label %100

94:                                               ; preds = %90
  %95 = load ptr, ptr %11, align 8, !tbaa !99
  %96 = getelementptr inbounds nuw i32, ptr %95, i32 1
  store ptr %96, ptr %11, align 8, !tbaa !99
  %97 = load i32, ptr %95, align 4, !tbaa !29
  %98 = load ptr, ptr %9, align 8, !tbaa !99
  %99 = getelementptr inbounds nuw i32, ptr %98, i32 1
  store ptr %99, ptr %9, align 8, !tbaa !99
  store i32 %97, ptr %98, align 4, !tbaa !29
  br label %90, !llvm.loop !266

100:                                              ; preds = %90
  %101 = load ptr, ptr %9, align 8, !tbaa !99
  %102 = load ptr, ptr %8, align 8, !tbaa !99
  %103 = ptrtoint ptr %101 to i64
  %104 = ptrtoint ptr %102 to i64
  %105 = sub i64 %103, %104
  %106 = sdiv exact i64 %105, 4
  %107 = sub nsw i64 %106, 1
  %108 = trunc i64 %107 to i32
  %109 = load ptr, ptr %8, align 8, !tbaa !99
  %110 = getelementptr inbounds i32, ptr %109, i64 0
  store i32 %108, ptr %110, align 4, !tbaa !29
  call void @llvm.lifetime.end.p0(i64 8, ptr %13) #13
  call void @llvm.lifetime.end.p0(i64 8, ptr %12) #13
  call void @llvm.lifetime.end.p0(i64 8, ptr %11) #13
  call void @llvm.lifetime.end.p0(i64 8, ptr %10) #13
  call void @llvm.lifetime.end.p0(i64 8, ptr %9) #13
  ret i32 %108
}