; Function Attrs: nofree norecurse nosync nounwind memory(argmem: readwrite) uwtable
define i32 @Sbd_CutMergeSimple(ptr noundef readnone captures(none) %0, ptr noundef readonly %1, ptr noundef readonly %2, ptr noundef %3) local_unnamed_addr #12 {
  %.ptr = getelementptr inbounds nuw i8, ptr %1, i64 4
  %.ptr59 = getelementptr inbounds nuw i8, ptr %2, i64 4
  %5 = load i32, ptr %1, align 4, !tbaa !50
  %6 = sext i32 %5 to i64
  %.idx = shl nsw i64 %6, 2
  %7 = getelementptr i8, ptr %1, i64 %.idx
  %.ptr57 = getelementptr i8, ptr %7, i64 4
  %8 = load i32, ptr %2, align 4, !tbaa !50
  %9 = sext i32 %8 to i64
  %.idx58 = shl nsw i64 %9, 2
  %10 = getelementptr i8, ptr %2, i64 %.idx58
  %.ptr60 = getelementptr i8, ptr %10, i64 4
  %.043 = getelementptr inbounds nuw i8, ptr %3, i64 4
  %11 = icmp sgt i32 %5, 0
  %12 = icmp sgt i32 %8, 0
  %13 = select i1 %11, i1 %12, i1 false
  br i1 %13, label %.lr.ph, label %.preheader42

.preheader42:                                     ; preds = %27, %4
  %.036.lcssa = phi ptr [ %.ptr59, %4 ], [ %.137, %27 ]
  %.033.lcssa = phi ptr [ %.ptr, %4 ], [ %.134, %27 ]
  %.0.lcssa = phi ptr [ %.043, %4 ], [ %.0, %27 ]
  %14 = icmp ult ptr %.033.lcssa, %.ptr57
  br i1 %14, label %.lr.ph51, label %.preheader

.lr.ph:                                           ; preds = %4, %27
  %.046 = phi ptr [ %.0, %27 ], [ %.043, %4 ]
  %.03345 = phi ptr [ %.134, %27 ], [ %.ptr, %4 ]
  %.03644 = phi ptr [ %.137, %27 ], [ %.ptr59, %4 ]
  %15 = load i32, ptr %.03345, align 4, !tbaa !50
  %16 = load i32, ptr %.03644, align 4, !tbaa !50
  %17 = icmp eq i32 %15, %16
  br i1 %17, label %18, label %21

18:                                               ; preds = %.lr.ph
  %19 = getelementptr inbounds nuw i8, ptr %.03345, i64 4
  store i32 %15, ptr %.046, align 4, !tbaa !50
  %20 = getelementptr inbounds nuw i8, ptr %.03644, i64 4
  br label %27

21:                                               ; preds = %.lr.ph
  %22 = icmp slt i32 %15, %16
  br i1 %22, label %23, label %25

23:                                               ; preds = %21
  %24 = getelementptr inbounds nuw i8, ptr %.03345, i64 4
  store i32 %15, ptr %.046, align 4, !tbaa !50
  br label %27

25:                                               ; preds = %21
  %26 = getelementptr inbounds nuw i8, ptr %.03644, i64 4
  store i32 %16, ptr %.046, align 4, !tbaa !50
  br label %27

27:                                               ; preds = %23, %25, %18
  %.137 = phi ptr [ %20, %18 ], [ %.03644, %23 ], [ %26, %25 ]
  %.134 = phi ptr [ %19, %18 ], [ %24, %23 ], [ %.03345, %25 ]
  %.0 = getelementptr inbounds nuw i8, ptr %.046, i64 4
  %28 = icmp ult ptr %.134, %.ptr57
  %29 = icmp ult ptr %.137, %.ptr60
  %30 = select i1 %28, i1 %29, i1 false
  br i1 %30, label %.lr.ph, label %.preheader42, !llvm.loop !250

.preheader:                                       ; preds = %.lr.ph51, %.preheader42
  %.2.lcssa = phi ptr [ %.0.lcssa, %.preheader42 ], [ %34, %.lr.ph51 ]
  %31 = icmp ult ptr %.036.lcssa, %.ptr60
  br i1 %31, label %.lr.ph55, label %._crit_edge

.lr.ph51:                                         ; preds = %.preheader42, %.lr.ph51
  %.250 = phi ptr [ %34, %.lr.ph51 ], [ %.0.lcssa, %.preheader42 ]
  %.23549 = phi ptr [ %32, %.lr.ph51 ], [ %.033.lcssa, %.preheader42 ]
  %32 = getelementptr inbounds nuw i8, ptr %.23549, i64 4
  %33 = load i32, ptr %.23549, align 4, !tbaa !50
  %34 = getelementptr inbounds nuw i8, ptr %.250, i64 4
  store i32 %33, ptr %.250, align 4, !tbaa !50
  %35 = icmp ult ptr %32, %.ptr57
  br i1 %35, label %.lr.ph51, label %.preheader, !llvm.loop !251

.lr.ph55:                                         ; preds = %.preheader, %.lr.ph55
  %.354 = phi ptr [ %38, %.lr.ph55 ], [ %.2.lcssa, %.preheader ]
  %.23853 = phi ptr [ %36, %.lr.ph55 ], [ %.036.lcssa, %.preheader ]
  %36 = getelementptr inbounds nuw i8, ptr %.23853, i64 4
  %37 = load i32, ptr %.23853, align 4, !tbaa !50
  %38 = getelementptr inbounds nuw i8, ptr %.354, i64 4
  store i32 %37, ptr %.354, align 4, !tbaa !50
  %39 = icmp ult ptr %36, %.ptr60
  br i1 %39, label %.lr.ph55, label %._crit_edge, !llvm.loop !252

._crit_edge:                                      ; preds = %.lr.ph55, %.preheader
  %.3.lcssa = phi ptr [ %.2.lcssa, %.preheader ], [ %38, %.lr.ph55 ]
  %40 = ptrtoint ptr %.3.lcssa to i64
  %41 = ptrtoint ptr %3 to i64
  %42 = sub i64 %40, %41
  %43 = lshr exact i64 %42, 2
  %44 = trunc i64 %43 to i32
  %45 = add i32 %44, -1
  store i32 %45, ptr %3, align 4, !tbaa !50
  ret i32 %45
}